; Function Attrs: nounwind uwtable
define void @Cba_BlastMultiplier(ptr noundef %0, ptr noundef readonly captures(none) %1, ptr noundef readonly captures(none) %2, i32 noundef %3, i32 noundef %4, ptr noundef captures(none) %5, ptr noundef captures(none) %6, i32 noundef %7) local_unnamed_addr #0 {
  %9 = add nsw i32 %4, %3
  %10 = load i32, ptr %6, align 8
  %.not.i.i = icmp slt i32 %10, %9
  br i1 %.not.i.i, label %11, label %Vec_IntGrow.exit.i

11:                                               ; preds = %8
  %12 = getelementptr inbounds nuw i8, ptr %6, i64 8
  %13 = load ptr, ptr %12, align 8
  %.not9.i.i = icmp eq ptr %13, null
  %14 = sext i32 %9 to i64
  %15 = shl nsw i64 %14, 2
  br i1 %.not9.i.i, label %18, label %16

16:                                               ; preds = %11
  %17 = tail call ptr @realloc(ptr noundef nonnull %13, i64 noundef %15) #18
  br label %20

18:                                               ; preds = %11
  %19 = tail call noalias ptr @malloc(i64 noundef %15) #19
  br label %20

20:                                               ; preds = %18, %16
  %21 = phi ptr [ %17, %16 ], [ %19, %18 ]
  store ptr %21, ptr %12, align 8
  store i32 %9, ptr %6, align 8
  br label %Vec_IntGrow.exit.i

Vec_IntGrow.exit.i:                               ; preds = %20, %8
  %22 = icmp sgt i32 %9, 0
  br i1 %22, label %.lr.ph.i, label %Vec_IntFill.exit

.lr.ph.i:                                         ; preds = %Vec_IntGrow.exit.i
  %23 = getelementptr inbounds nuw i8, ptr %6, i64 8
  %wide.trip.count.i = zext nneg i32 %9 to i64
  br label %24

24:                                               ; preds = %24, %.lr.ph.i
  %indvars.iv.i = phi i64 [ 0, %.lr.ph.i ], [ %indvars.iv.next.i, %24 ]
  %25 = load ptr, ptr %23, align 8
  %26 = getelementptr inbounds nuw i32, ptr %25, i64 %indvars.iv.i
  store i32 0, ptr %26, align 4
  %indvars.iv.next.i = add nuw nsw i64 %indvars.iv.i, 1
  %exitcond.not.i = icmp eq i64 %indvars.iv.next.i, %wide.trip.count.i
  br i1 %exitcond.not.i, label %Vec_IntFill.exit, label %24, !llvm.loop !4

Vec_IntFill.exit:                                 ; preds = %24, %Vec_IntGrow.exit.i
  %27 = getelementptr inbounds nuw i8, ptr %6, i64 4
  store i32 %9, ptr %27, align 4
  %28 = getelementptr i8, ptr %6, i64 8
  %.val55 = load ptr, ptr %28, align 8
  %29 = shl nsw i32 %3, 1
  %30 = load i32, ptr %5, align 8
  %.not.i.i56 = icmp slt i32 %30, %29
  br i1 %.not.i.i56, label %31, label %Vec_IntGrow.exit.i57

31:                                               ; preds = %Vec_IntFill.exit
  %32 = getelementptr inbounds nuw i8, ptr %5, i64 8
  %33 = load ptr, ptr %32, align 8
  %.not9.i.i63 = icmp eq ptr %33, null
  %34 = sext i32 %29 to i64
  %35 = shl nsw i64 %34, 2
  br i1 %.not9.i.i63, label %38, label %36

36:                                               ; preds = %31
  %37 = tail call ptr @realloc(ptr noundef nonnull %33, i64 noundef %35) #18
  br label %40

38:                                               ; preds = %31
  %39 = tail call noalias ptr @malloc(i64 noundef %35) #19
  br label %40

40:                                               ; preds = %38, %36
  %41 = phi ptr [ %37, %36 ], [ %39, %38 ]
  store ptr %41, ptr %32, align 8
  store i32 %29, ptr %5, align 8
  br label %Vec_IntGrow.exit.i57

Vec_IntGrow.exit.i57:                             ; preds = %40, %Vec_IntFill.exit
  %42 = icmp sgt i32 %3, 0
  br i1 %42, label %.lr.ph.i58, label %Vec_IntFill.exit64.thread

.lr.ph.i58:                                       ; preds = %Vec_IntGrow.exit.i57
  %43 = getelementptr inbounds nuw i8, ptr %5, i64 8
  %wide.trip.count.i59 = zext nneg i32 %29 to i64
  br label %44

44:                                               ; preds = %44, %.lr.ph.i58
  %indvars.iv.i60 = phi i64 [ 0, %.lr.ph.i58 ], [ %indvars.iv.next.i61, %44 ]
  %45 = load ptr, ptr %43, align 8
  %46 = getelementptr inbounds nuw i32, ptr %45, i64 %indvars.iv.i60
  store i32 0, ptr %46, align 4
  %indvars.iv.next.i61 = add nuw nsw i64 %indvars.iv.i60, 1
  %exitcond.not.i62 = icmp eq i64 %indvars.iv.next.i61, %wide.trip.count.i59
  br i1 %exitcond.not.i62, label %Vec_IntFill.exit64, label %44, !llvm.loop !4

Vec_IntFill.exit64:                               ; preds = %44
  %47 = getelementptr inbounds nuw i8, ptr %5, i64 4
  store i32 %29, ptr %47, align 4
  %48 = getelementptr i8, ptr %5, i64 8
  %.val = load ptr, ptr %48, align 8
  %49 = zext nneg i32 %3 to i64
  %50 = getelementptr inbounds nuw i32, ptr %.val, i64 %49
  %51 = icmp sgt i32 %4, 0
  br i1 %51, label %.preheader.lr.ph, label %._crit_edge68

Vec_IntFill.exit64.thread:                        ; preds = %Vec_IntGrow.exit.i57
  %52 = getelementptr inbounds nuw i8, ptr %5, i64 4
  store i32 %29, ptr %52, align 4
  %53 = getelementptr i8, ptr %5, i64 8
  %.val83 = load ptr, ptr %53, align 8
  %54 = sext i32 %3 to i64
  %55 = getelementptr inbounds i32, ptr %.val83, i64 %54
  %56 = getelementptr i32, ptr %55, i64 %54
  %57 = getelementptr i8, ptr %56, i64 -4
  store i32 %7, ptr %57, align 4
  br label %._crit_edge

.preheader.lr.ph:                                 ; preds = %Vec_IntFill.exit64
  %.not54 = icmp ne i32 %7, 0
  %58 = zext nneg i32 %3 to i64
  %59 = zext nneg i32 %4 to i64
  br label %.preheader.us

.preheader.us:                                    ; preds = %.preheader.lr.ph, %._crit_edge.us
  %indvars.iv73 = phi i64 [ 0, %.preheader.lr.ph ], [ %indvars.iv.next74, %._crit_edge.us ]
  %60 = getelementptr inbounds nuw i32, ptr %2, i64 %indvars.iv73
  %61 = getelementptr inbounds nuw i32, ptr %.val55, i64 %indvars.iv73
  %indvars.iv.next74 = add nuw nsw i64 %indvars.iv73, 1
  %62 = icmp eq i64 %indvars.iv.next74, %59
  br label %63

63:                                               ; preds = %.preheader.us, %63
  %indvars.iv = phi i64 [ 0, %.preheader.us ], [ %indvars.iv.next, %63 ]
  %64 = getelementptr inbounds nuw i32, ptr %1, i64 %indvars.iv
  %65 = load i32, ptr %64, align 4
  %66 = load i32, ptr %60, align 4
  %67 = getelementptr inbounds nuw i32, ptr %50, i64 %indvars.iv
  %68 = load i32, ptr %67, align 4
  %69 = getelementptr inbounds nuw i32, ptr %.val, i64 %indvars.iv
  %70 = load i32, ptr %69, align 4
  %.not.us = icmp eq i64 %indvars.iv, 0
  %71 = getelementptr i8, ptr %67, i64 -4
  %72 = select i1 %.not.us, ptr %61, ptr %71
  %indvars.iv.next = add nuw nsw i64 %indvars.iv, 1
  %73 = icmp eq i64 %indvars.iv.next, %58
  %74 = xor i1 %62, %73
  %narrow = select i1 %.not54, i1 %74, i1 false
  %75 = zext i1 %narrow to i32
  %76 = tail call i32 @Gia_ManHashAnd(ptr noundef %0, i32 noundef %65, i32 noundef %66) #20
  %77 = xor i32 %76, %75
  %78 = tail call i32 @Gia_ManHashAnd(ptr noundef %0, i32 noundef %77, i32 noundef %68) #20
  %79 = xor i32 %77, 1
  %80 = xor i32 %68, 1
  %81 = tail call i32 @Gia_ManHashAnd(ptr noundef %0, i32 noundef %79, i32 noundef %80) #20
  %82 = tail call i32 @Gia_ManHashOr(ptr noundef %0, i32 noundef %78, i32 noundef %81) #20
  %83 = xor i32 %82, 1
  %84 = tail call i32 @Gia_ManHashAnd(ptr noundef %0, i32 noundef %70, i32 noundef %83) #20
  %85 = xor i32 %70, 1
  %86 = tail call i32 @Gia_ManHashAnd(ptr noundef %0, i32 noundef %85, i32 noundef %82) #20
  %87 = tail call i32 @Gia_ManHashOr(ptr noundef %0, i32 noundef %84, i32 noundef %86) #20
  %88 = xor i32 %87, 1
  store i32 %88, ptr %72, align 4
  %89 = tail call i32 @Gia_ManHashOr(ptr noundef %0, i32 noundef %78, i32 noundef %84) #20
  store i32 %89, ptr %69, align 4
  %exitcond.not = icmp eq i64 %indvars.iv.next, %58
  br i1 %exitcond.not, label %._crit_edge.us, label %63, !llvm.loop !32

._crit_edge.us:                                   ; preds = %63
  %exitcond77.not = icmp eq i64 %indvars.iv.next74, %59
  br i1 %exitcond77.not, label %._crit_edge68, label %.preheader.us, !llvm.loop !33

._crit_edge68:                                    ; preds = %._crit_edge.us, %Vec_IntFill.exit64
  %90 = getelementptr i32, ptr %50, i64 %49
  %91 = getelementptr i8, ptr %90, i64 -4
  store i32 %7, ptr %91, align 4
  %92 = sext i32 %4 to i64
  %wide.trip.count81 = zext nneg i32 %3 to i64
  %invariant.gep = getelementptr i32, ptr %.val55, i64 %92
  br label %.lr.ph

.lr.ph:                                           ; preds = %._crit_edge68, %.lr.ph
  %indvars.iv78 = phi i64 [ 0, %._crit_edge68 ], [ %indvars.iv.next79, %.lr.ph ]
  %.06569 = phi i32 [ %7, %._crit_edge68 ], [ %109, %.lr.ph ]
  %93 = getelementptr inbounds nuw i32, ptr %.val, i64 %indvars.iv78
  %94 = load i32, ptr %93, align 4
  %95 = getelementptr inbounds nuw i32, ptr %50, i64 %indvars.iv78
  %96 = load i32, ptr %95, align 4
  %gep = getelementptr i32, ptr %invariant.gep, i64 %indvars.iv78
  %97 = tail call i32 @Gia_ManHashAnd(ptr noundef %0, i32 noundef 1, i32 noundef %94) #20
  %98 = tail call i32 @Gia_ManHashAnd(ptr noundef %0, i32 noundef %97, i32 noundef %96) #20
  %99 = xor i32 %97, 1
  %100 = xor i32 %96, 1
  %101 = tail call i32 @Gia_ManHashAnd(ptr noundef %0, i32 noundef %99, i32 noundef %100) #20
  %102 = tail call i32 @Gia_ManHashOr(ptr noundef %0, i32 noundef %98, i32 noundef %101) #20
  %103 = xor i32 %102, 1
  %104 = tail call i32 @Gia_ManHashAnd(ptr noundef %0, i32 noundef %.06569, i32 noundef %103) #20
  %105 = xor i32 %.06569, 1
  %106 = tail call i32 @Gia_ManHashAnd(ptr noundef %0, i32 noundef %105, i32 noundef %102) #20
  %107 = tail call i32 @Gia_ManHashOr(ptr noundef %0, i32 noundef %104, i32 noundef %106) #20
  %108 = xor i32 %107, 1
  store i32 %108, ptr %gep, align 4
  %109 = tail call i32 @Gia_ManHashOr(ptr noundef %0, i32 noundef %98, i32 noundef %104) #20
  %indvars.iv.next79 = add nuw nsw i64 %indvars.iv78, 1
  %exitcond82.not = icmp eq i64 %indvars.iv.next79, %wide.trip.count81
  br i1 %exitcond82.not, label %._crit_edge, label %.lr.ph, !llvm.loop !34

._crit_edge:                                      ; preds = %.lr.ph, %Vec_IntFill.exit64.thread
  ret void
}